target datalayout = "e-m:e-p270:32:32-p271:32:32-p272:64:64-i64:64-i128:128-f80:128-n8:16:32:64-S128"
target triple = "x86_64-pc-linux-gnu"

%"class.icu_77::RegexMatcher" = type { %"class.icu_77::UObject", ptr, ptr, ptr, ptr, ptr, i64, i32, i64, i64, i64, i64, i64, i64, i64, i64, i8, i8, i8, i64, i64, i64, i64, i8, i8, ptr, ptr, ptr, [8 x i64], i32, i32, i32, i32, ptr, ptr, ptr, ptr, i8, i8, i32, ptr, ptr }
%"class.icu_77::UObject" = type { ptr }

; Function Attrs: mustprogress nounwind uwtable
define noundef nonnull align 8 dereferenceable(336) ptr @_ZN6icu_7712RegexMatcher20useTransparentBoundsEa(ptr noundef nonnull align 8 dereferenceable(336) %0, i8 noundef signext %1) unnamed_addr #0 align 2 {
  %3 = alloca ptr, align 8
  %4 = alloca i8, align 1
  store ptr %0, ptr %3, align 8, !tbaa !23
  store i8 %1, ptr %4, align 1, !tbaa !126
  %5 = load ptr, ptr %3, align 8
  %6 = load i8, ptr %4, align 1, !tbaa !126
  %7 = getelementptr inbounds nuw %"class.icu_77::RegexMatcher", ptr %5, i32 0, i32 16
  store i8 %6, ptr %7, align 8, !tbaa !64
  %8 = getelementptr inbounds nuw %"class.icu_77::RegexMatcher", ptr %5, i32 0, i32 16
  %9 = load i8, ptr %8, align 8, !tbaa !64
  %10 = icmp ne i8 %9, 0
  br i1 %10, label %11, label %12

11:                                               ; preds = %2
  br label %15

12:                                               ; preds = %2
  %13 = getelementptr inbounds nuw %"class.icu_77::RegexMatcher", ptr %5, i32 0, i32 8
  %14 = load i64, ptr %13, align 8, !tbaa !56
  br label %15

15:                                               ; preds = %12, %11
  %16 = phi i64 [ 0, %11 ], [ %14, %12 ]
  %17 = getelementptr inbounds nuw %"class.icu_77::RegexMatcher", ptr %5, i32 0, i32 12
  store i64 %16, ptr %17, align 8, !tbaa !60
  %18 = getelementptr inbounds nuw %"class.icu_77::RegexMatcher", ptr %5, i32 0, i32 16
  %19 = load i8, ptr %18, align 8, !tbaa !64
  %20 = icmp ne i8 %19, 0
  br i1 %20, label %21, label %24

21:                                               ; preds = %15
  %22 = getelementptr inbounds nuw %"class.icu_77::RegexMatcher", ptr %5, i32 0, i32 6
  %23 = load i64, ptr %22, align 8, !tbaa !90
  br label %27

24:                                               ; preds = %15
  %25 = getelementptr inbounds nuw %"class.icu_77::RegexMatcher", ptr %5, i32 0, i32 9
  %26 = load i64, ptr %25, align 8, !tbaa !57
  br label %27

27:                                               ; preds = %24, %21
  %28 = phi i64 [ %23, %21 ], [ %26, %24 ]
  %29 = getelementptr inbounds nuw %"class.icu_77::RegexMatcher", ptr %5, i32 0, i32 13
  store i64 %28, ptr %29, align 8, !tbaa !61
  ret ptr %5
}