; Function Attrs: mustprogress nofree norecurse nosync nounwind willreturn memory(argmem: readwrite) uwtable
define noundef nonnull align 8 dereferenceable(336) ptr @_ZN6icu_7712RegexMatcher20useTransparentBoundsEa(ptr noundef nonnull returned align 8 dereferenceable(336) initializes((96, 104), (128, 129)) %0, i8 noundef signext %1) unnamed_addr #10 align 2 {
  %3 = getelementptr inbounds nuw i8, ptr %0, i64 128
  store i8 %1, ptr %3, align 8, !tbaa !153
  %.not = icmp eq i8 %1, 0
  %4 = getelementptr inbounds nuw i8, ptr %0, i64 64
  %5 = load i64, ptr %4, align 8
  %6 = select i1 %.not, i64 %5, i64 0
  %7 = getelementptr inbounds nuw i8, ptr %0, i64 96
  store i64 %6, ptr %7, align 8, !tbaa !72
  %.in.v = select i1 %.not, i64 72, i64 48
  %.in = getelementptr inbounds nuw i8, ptr %0, i64 %.in.v
  %8 = load i64, ptr %.in, align 8, !tbaa !110
  %9 = getelementptr inbounds nuw i8, ptr %0, i64 104
  store i64 %8, ptr %9, align 8, !tbaa !73
  ret ptr %0
}